target datalayout = "e-m:e-p270:32:32-p271:32:32-p272:64:64-i64:64-i128:128-f80:128-n8:16:32:64-S128"
target triple = "x86_64-pc-linux-gnu"

%struct.Gia_Obj_t_ = type <{ i64, i32 }>
%struct.Vec_Int_t_ = type { i32, i32, ptr }
%struct.Gia_Man_t_ = type { ptr, ptr, i32, i32, i32, i32, ptr, ptr, i32, i32, i32, ptr, ptr, %struct.Vec_Int_t_, %struct.Vec_Int_t_, i32, i32, i32, %struct.Vec_Int_t_, ptr, ptr, ptr, i32, i32, i32, i32, ptr, ptr, ptr, ptr, ptr, i32, i32, ptr, i32, ptr, ptr, ptr, ptr, ptr, ptr, ptr, ptr, ptr, ptr, ptr, ptr, ptr, ptr, ptr, ptr, ptr, ptr, %struct.Vec_Int_t_, %struct.Vec_Int_t_, ptr, ptr, ptr, ptr, ptr, ptr, ptr, ptr, ptr, ptr, ptr, ptr, ptr, ptr, ptr, ptr, ptr, ptr, ptr, ptr, ptr, i32, float, float, ptr, ptr, i32, ptr, ptr, ptr, ptr, ptr, ptr, ptr, ptr, ptr, ptr, ptr, ptr, ptr, ptr, ptr, i64, i64, ptr, ptr, i32, i32, i32, i32, i32, i32, i32, i32, i32, i32, i32, i32, ptr, ptr, ptr, ptr, ptr, ptr, ptr, ptr, i32, i32, i32, ptr, i32, i32, ptr, ptr, ptr, ptr, ptr, ptr, i32, i32, ptr, %struct.Vec_Int_t_, %struct.Vec_Int_t_, %struct.Vec_Int_t_, ptr, ptr, ptr }

; Function Attrs: nounwind uwtable
define internal i32 @Vec_IntEntry(ptr noundef %0, i32 noundef %1) #0 {
  %3 = alloca ptr, align 8
  %4 = alloca i32, align 4
  store ptr %0, ptr %3, align 8
  store i32 %1, ptr %4, align 4
  %5 = load ptr, ptr %3, align 8
  %6 = getelementptr inbounds %struct.Vec_Int_t_, ptr %5, i32 0, i32 2
  %7 = load ptr, ptr %6, align 8
  %8 = load i32, ptr %4, align 4
  %9 = sext i32 %8 to i64
  %10 = getelementptr inbounds i32, ptr %7, i64 %9
  %11 = load i32, ptr %10, align 4
  ret i32 %11
}

; Function Attrs: nounwind uwtable
define internal ptr @Gia_ManCo(ptr noundef %0, i32 noundef %1) #0 {
  %3 = alloca ptr, align 8
  %4 = alloca i32, align 4
  store ptr %0, ptr %3, align 8
  store i32 %1, ptr %4, align 4
  %5 = load ptr, ptr %3, align 8
  %6 = load ptr, ptr %3, align 8
  %7 = getelementptr inbounds %struct.Gia_Man_t_, ptr %6, i32 0, i32 12
  %8 = load ptr, ptr %7, align 8
  %9 = load i32, ptr %4, align 4
  %10 = call i32 @Vec_IntEntry(ptr noundef %8, i32 noundef %9)
  %11 = call ptr @Gia_ManObj(ptr noundef %5, i32 noundef %10)
  ret ptr %11
}

; Function Attrs: nounwind uwtable
define internal i32 @Vec_IntSize(ptr noundef %0) #0 {
  %2 = alloca ptr, align 8
  store ptr %0, ptr %2, align 8
  %3 = load ptr, ptr %2, align 8
  %4 = getelementptr inbounds %struct.Vec_Int_t_, ptr %3, i32 0, i32 1
  %5 = load i32, ptr %4, align 4
  ret i32 %5
}

; Function Attrs: nounwind uwtable
define internal ptr @Gia_ManCi(ptr noundef %0, i32 noundef %1) #0 {
  %3 = alloca ptr, align 8
  %4 = alloca i32, align 4
  store ptr %0, ptr %3, align 8
  store i32 %1, ptr %4, align 4
  %5 = load ptr, ptr %3, align 8
  %6 = load ptr, ptr %3, align 8
  %7 = getelementptr inbounds %struct.Gia_Man_t_, ptr %6, i32 0, i32 11
  %8 = load ptr, ptr %7, align 8
  %9 = load i32, ptr %4, align 4
  %10 = call i32 @Vec_IntEntry(ptr noundef %8, i32 noundef %9)
  %11 = call ptr @Gia_ManObj(ptr noundef %5, i32 noundef %10)
  ret ptr %11
}

; Function Attrs: nounwind uwtable
define internal i32 @Gia_ManPiNum(ptr noundef %0) #0 {
  %2 = alloca ptr, align 8
  store ptr %0, ptr %2, align 8
  %3 = load ptr, ptr %2, align 8
  %4 = getelementptr inbounds %struct.Gia_Man_t_, ptr %3, i32 0, i32 11
  %5 = load ptr, ptr %4, align 8
  %6 = call i32 @Vec_IntSize(ptr noundef %5)
  %7 = load ptr, ptr %2, align 8
  %8 = getelementptr inbounds %struct.Gia_Man_t_, ptr %7, i32 0, i32 2
  %9 = load i32, ptr %8, align 8
  %10 = sub nsw i32 %6, %9
  ret i32 %10
}

; Function Attrs: nounwind uwtable
define internal i32 @Gia_ManRegNum(ptr noundef %0) #0 {
  %2 = alloca ptr, align 8
  store ptr %0, ptr %2, align 8
  %3 = load ptr, ptr %2, align 8
  %4 = getelementptr inbounds %struct.Gia_Man_t_, ptr %3, i32 0, i32 2
  %5 = load i32, ptr %4, align 8
  ret i32 %5
}

; Function Attrs: nounwind uwtable
define internal ptr @Gia_ObjFanin1(ptr noundef %0) #0 {
  %2 = alloca ptr, align 8
  store ptr %0, ptr %2, align 8
  %3 = load ptr, ptr %2, align 8
  %4 = load ptr, ptr %2, align 8
  %5 = load i64, ptr %4, align 4
  %6 = lshr i64 %5, 32
  %7 = and i64 %6, 536870911
  %8 = trunc i64 %7 to i32
  %9 = sext i32 %8 to i64
  %10 = sub i64 0, %9
  %11 = getelementptr inbounds %struct.Gia_Obj_t_, ptr %3, i64 %10
  ret ptr %11
}

; Function Attrs: nounwind uwtable
define internal ptr @Gia_ObjFanin0(ptr noundef %0) #0 {
  %2 = alloca ptr, align 8
  store ptr %0, ptr %2, align 8
  %3 = load ptr, ptr %2, align 8
  %4 = load ptr, ptr %2, align 8
  %5 = load i64, ptr %4, align 4
  %6 = and i64 %5, 536870911
  %7 = trunc i64 %6 to i32
  %8 = sext i32 %7 to i64
  %9 = sub i64 0, %8
  %10 = getelementptr inbounds %struct.Gia_Obj_t_, ptr %3, i64 %9
  ret ptr %10
}

; Function Attrs: nounwind uwtable
define internal i32 @Gia_ObjIsAnd(ptr noundef %0) #0 {
  %2 = alloca ptr, align 8
  store ptr %0, ptr %2, align 8
  %3 = load ptr, ptr %2, align 8
  %4 = load i64, ptr %3, align 4
  %5 = lshr i64 %4, 31
  %6 = and i64 %5, 1
  %7 = trunc i64 %6 to i32
  %8 = icmp ne i32 %7, 0
  br i1 %8, label %15, label %9

9:                                                ; preds = %1
  %10 = load ptr, ptr %2, align 8
  %11 = load i64, ptr %10, align 4
  %12 = and i64 %11, 536870911
  %13 = trunc i64 %12 to i32
  %14 = icmp ne i32 %13, 536870911
  br label %15

15:                                               ; preds = %9, %1
  %16 = phi i1 [ false, %1 ], [ %14, %9 ]
  %17 = zext i1 %16 to i32
  ret i32 %17
}

; Function Attrs: nounwind uwtable
define internal ptr @Gia_ManObj(ptr noundef %0, i32 noundef %1) #0 {
  %3 = alloca ptr, align 8
  %4 = alloca i32, align 4
  store ptr %0, ptr %3, align 8
  store i32 %1, ptr %4, align 4
  %5 = load ptr, ptr %3, align 8
  %6 = getelementptr inbounds %struct.Gia_Man_t_, ptr %5, i32 0, i32 6
  %7 = load ptr, ptr %6, align 8
  %8 = load i32, ptr %4, align 4
  %9 = sext i32 %8 to i64
  %10 = getelementptr inbounds %struct.Gia_Obj_t_, ptr %7, i64 %9
  ret ptr %10
}

; Function Attrs: nounwind uwtable
define internal ptr @Gia_ManConst0(ptr noundef %0) #0 {
  %2 = alloca ptr, align 8
  store ptr %0, ptr %2, align 8
  %3 = load ptr, ptr %2, align 8
  %4 = getelementptr inbounds %struct.Gia_Man_t_, ptr %3, i32 0, i32 6
  %5 = load ptr, ptr %4, align 8
  ret ptr %5
}

; Function Attrs: nounwind uwtable
define internal ptr @Abc_UtilStrsav(ptr noundef %0) #0 {
  %2 = alloca ptr, align 8
  store ptr %0, ptr %2, align 8
  %3 = load ptr, ptr %2, align 8
  %4 = icmp ne ptr %3, null
  br i1 %4, label %5, label %13

5:                                                ; preds = %1
  %6 = load ptr, ptr %2, align 8
  %7 = call i64 @strlen(ptr noundef %6) #14
  %8 = add i64 %7, 1
  %9 = mul i64 1, %8
  %10 = call noalias ptr @malloc(i64 noundef %9) #12
  %11 = load ptr, ptr %2, align 8
  %12 = call ptr @strcpy(ptr noundef %10, ptr noundef %11) #13
  br label %14

13:                                               ; preds = %1
  br label %14

14:                                               ; preds = %13, %5
  %15 = phi ptr [ %12, %5 ], [ null, %13 ]
  ret ptr %15
}

; Function Attrs: nounwind uwtable
define internal i32 @Gia_ManObjNum(ptr noundef %0) #0 {
  %2 = alloca ptr, align 8
  store ptr %0, ptr %2, align 8
  %3 = load ptr, ptr %2, align 8
  %4 = getelementptr inbounds %struct.Gia_Man_t_, ptr %3, i32 0, i32 4
  %5 = load i32, ptr %4, align 8
  ret i32 %5
}

; Function Attrs: nounwind uwtable
define ptr @Gia_ManDupReplaceCut(ptr noundef %0) #0 {
  %2 = alloca ptr, align 8
  %3 = alloca ptr, align 8
  %4 = alloca i32, align 4
  %5 = alloca ptr, align 8
  %6 = alloca ptr, align 8
  store ptr %0, ptr %2, align 8
  %7 = load ptr, ptr %2, align 8
  call void @Gia_ManHighLightFlopLogic(ptr noundef %7)
  %8 = load ptr, ptr %2, align 8
  %9 = call i32 @Gia_ManObjNum(ptr noundef %8)
  %10 = call ptr @Gia_ManStart(i32 noundef %9)
  store ptr %10, ptr %3, align 8
  %11 = load ptr, ptr %2, align 8
  %12 = getelementptr inbounds %struct.Gia_Man_t_, ptr %11, i32 0, i32 0
  %13 = load ptr, ptr %12, align 8
  %14 = call ptr @Abc_UtilStrsav(ptr noundef %13)
  %15 = load ptr, ptr %3, align 8
  %16 = getelementptr inbounds %struct.Gia_Man_t_, ptr %15, i32 0, i32 0
  store ptr %14, ptr %16, align 8
  %17 = load ptr, ptr %2, align 8
  %18 = getelementptr inbounds %struct.Gia_Man_t_, ptr %17, i32 0, i32 1
  %19 = load ptr, ptr %18, align 8
  %20 = call ptr @Abc_UtilStrsav(ptr noundef %19)
  %21 = load ptr, ptr %3, align 8
  %22 = getelementptr inbounds %struct.Gia_Man_t_, ptr %21, i32 0, i32 1
  store ptr %20, ptr %22, align 8
  %23 = load ptr, ptr %2, align 8
  call void @Gia_ManFillValue(ptr noundef %23)
  %24 = load ptr, ptr %2, align 8
  %25 = call ptr @Gia_ManConst0(ptr noundef %24)
  %26 = getelementptr inbounds %struct.Gia_Obj_t_, ptr %25, i32 0, i32 1
  store i32 0, ptr %26, align 4
  store i32 0, ptr %4, align 4
  br label %27

27:                                               ; preds = %95, %1
  %28 = load i32, ptr %4, align 4
  %29 = load ptr, ptr %2, align 8
  %30 = getelementptr inbounds %struct.Gia_Man_t_, ptr %29, i32 0, i32 4
  %31 = load i32, ptr %30, align 8
  %32 = icmp slt i32 %28, %31
  br i1 %32, label %33, label %38

33:                                               ; preds = %27
  %34 = load ptr, ptr %2, align 8
  %35 = load i32, ptr %4, align 4
  %36 = call ptr @Gia_ManObj(ptr noundef %34, i32 noundef %35)
  store ptr %36, ptr %5, align 8
  %37 = icmp ne ptr %36, null
  br label %38

38:                                               ; preds = %33, %27
  %39 = phi i1 [ false, %27 ], [ %37, %33 ]
  br i1 %39, label %40, label %98

40:                                               ; preds = %38
  %41 = load ptr, ptr %5, align 8
  %42 = call i32 @Gia_ObjIsAnd(ptr noundef %41)
  %43 = icmp ne i32 %42, 0
  br i1 %43, label %45, label %44

44:                                               ; preds = %40
  br label %94

45:                                               ; preds = %40
  %46 = load ptr, ptr %5, align 8
  %47 = load i64, ptr %46, align 4
  %48 = lshr i64 %47, 30
  %49 = and i64 %48, 1
  %50 = trunc i64 %49 to i32
  %51 = icmp ne i32 %50, 0
  br i1 %51, label %53, label %52

52:                                               ; preds = %45
  br label %95

53:                                               ; preds = %45
  %54 = load ptr, ptr %5, align 8
  %55 = call ptr @Gia_ObjFanin0(ptr noundef %54)
  store ptr %55, ptr %6, align 8
  %56 = load ptr, ptr %6, align 8
  %57 = load i64, ptr %56, align 4
  %58 = lshr i64 %57, 30
  %59 = and i64 %58, 1
  %60 = trunc i64 %59 to i32
  %61 = icmp ne i32 %60, 0
  br i1 %61, label %73, label %62

62:                                               ; preds = %53
  %63 = load ptr, ptr %6, align 8
  %64 = getelementptr inbounds %struct.Gia_Obj_t_, ptr %63, i32 0, i32 1
  %65 = load i32, ptr %64, align 4
  %66 = xor i32 %65, -1
  %67 = icmp ne i32 %66, 0
  br i1 %67, label %73, label %68

68:                                               ; preds = %62
  %69 = load ptr, ptr %3, align 8
  %70 = call i32 @Gia_ManAppendCi(ptr noundef %69)
  %71 = load ptr, ptr %6, align 8
  %72 = getelementptr inbounds %struct.Gia_Obj_t_, ptr %71, i32 0, i32 1
  store i32 %70, ptr %72, align 4
  br label %73

73:                                               ; preds = %68, %62, %53
  %74 = load ptr, ptr %5, align 8
  %75 = call ptr @Gia_ObjFanin1(ptr noundef %74)
  store ptr %75, ptr %6, align 8
  %76 = load ptr, ptr %6, align 8
  %77 = load i64, ptr %76, align 4
  %78 = lshr i64 %77, 30
  %79 = and i64 %78, 1
  %80 = trunc i64 %79 to i32
  %81 = icmp ne i32 %80, 0
  br i1 %81, label %93, label %82

82:                                               ; preds = %73
  %83 = load ptr, ptr %6, align 8
  %84 = getelementptr inbounds %struct.Gia_Obj_t_, ptr %83, i32 0, i32 1
  %85 = load i32, ptr %84, align 4
  %86 = xor i32 %85, -1
  %87 = icmp ne i32 %86, 0
  br i1 %87, label %93, label %88

88:                                               ; preds = %82
  %89 = load ptr, ptr %3, align 8
  %90 = call i32 @Gia_ManAppendCi(ptr noundef %89)
  %91 = load ptr, ptr %6, align 8
  %92 = getelementptr inbounds %struct.Gia_Obj_t_, ptr %91, i32 0, i32 1
  store i32 %90, ptr %92, align 4
  br label %93

93:                                               ; preds = %88, %82, %73
  br label %94

94:                                               ; preds = %93, %44
  br label %95

95:                                               ; preds = %94, %52
  %96 = load i32, ptr %4, align 4
  %97 = add nsw i32 %96, 1
  store i32 %97, ptr %4, align 4
  br label %27, !llvm.loop !444

98:                                               ; preds = %38
  store i32 0, ptr %4, align 4
  br label %99

99:                                               ; preds = %119, %98
  %100 = load i32, ptr %4, align 4
  %101 = load ptr, ptr %2, align 8
  %102 = call i32 @Gia_ManRegNum(ptr noundef %101)
  %103 = icmp slt i32 %100, %102
  br i1 %103, label %104, label %112

104:                                              ; preds = %99
  %105 = load ptr, ptr %2, align 8
  %106 = load ptr, ptr %2, align 8
  %107 = call i32 @Gia_ManPiNum(ptr noundef %106)
  %108 = load i32, ptr %4, align 4
  %109 = add nsw i32 %107, %108
  %110 = call ptr @Gia_ManCi(ptr noundef %105, i32 noundef %109)
  store ptr %110, ptr %5, align 8
  %111 = icmp ne ptr %110, null
  br label %112

112:                                              ; preds = %104, %99
  %113 = phi i1 [ false, %99 ], [ %111, %104 ]
  br i1 %113, label %114, label %122

114:                                              ; preds = %112
  %115 = load ptr, ptr %3, align 8
  %116 = call i32 @Gia_ManAppendCi(ptr noundef %115)
  %117 = load ptr, ptr %5, align 8
  %118 = getelementptr inbounds %struct.Gia_Obj_t_, ptr %117, i32 0, i32 1
  store i32 %116, ptr %118, align 4
  br label %119

119:                                              ; preds = %114
  %120 = load i32, ptr %4, align 4
  %121 = add nsw i32 %120, 1
  store i32 %121, ptr %4, align 4
  br label %99, !llvm.loop !445

122:                                              ; preds = %112
  store i32 0, ptr %4, align 4
  br label %123

123:                                              ; preds = %142, %122
  %124 = load i32, ptr %4, align 4
  %125 = load ptr, ptr %2, align 8
  %126 = getelementptr inbounds %struct.Gia_Man_t_, ptr %125, i32 0, i32 12
  %127 = load ptr, ptr %126, align 8
  %128 = call i32 @Vec_IntSize(ptr noundef %127)
  %129 = icmp slt i32 %124, %128
  br i1 %129, label %130, label %135

130:                                              ; preds = %123
  %131 = load ptr, ptr %2, align 8
  %132 = load i32, ptr %4, align 4
  %133 = call ptr @Gia_ManCo(ptr noundef %131, i32 noundef %132)
  store ptr %133, ptr %5, align 8
  %134 = icmp ne ptr %133, null
  br label %135

135:                                              ; preds = %130, %123
  %136 = phi i1 [ false, %123 ], [ %134, %130 ]
  br i1 %136, label %137, label %145

137:                                              ; preds = %135
  %138 = load ptr, ptr %3, align 8
  %139 = load ptr, ptr %2, align 8
  %140 = load ptr, ptr %5, align 8
  %141 = call i32 @Gia_ManDupOrderDfs_rec(ptr noundef %138, ptr noundef %139, ptr noundef %140)
  br label %142

142:                                              ; preds = %137
  %143 = load i32, ptr %4, align 4
  %144 = add nsw i32 %143, 1
  store i32 %144, ptr %4, align 4
  br label %123, !llvm.loop !446

145:                                              ; preds = %135
  %146 = load ptr, ptr %3, align 8
  %147 = load ptr, ptr %2, align 8
  %148 = call i32 @Gia_ManRegNum(ptr noundef %147)
  call void @Gia_ManSetRegNum(ptr noundef %146, i32 noundef %148)
  %149 = load ptr, ptr %2, align 8
  call void @Gia_ManCleanMark0(ptr noundef %149)
  %150 = load ptr, ptr %3, align 8
  ret ptr %150
}