; Function Attrs: nounwind uwtable
define ptr @Gia_ManDupReplaceCut(ptr noundef %0) local_unnamed_addr #1 {
  tail call void @Gia_ManHighLightFlopLogic(ptr noundef %0)
  %2 = getelementptr i8, ptr %0, i64 24
  %.val60 = load i32, ptr %2, align 8
  %3 = tail call ptr @Gia_ManStart(i32 noundef %.val60) #29
  %4 = load ptr, ptr %0, align 8
  %.not.i = icmp eq ptr %4, null
  br i1 %.not.i, label %Abc_UtilStrsav.exit, label %5

5:                                                ; preds = %1
  %6 = tail call i64 @strlen(ptr noundef nonnull readonly dereferenceable(1) %4) #30
  %7 = add i64 %6, 1
  %8 = tail call noalias ptr @malloc(i64 noundef %7) #27
  %9 = tail call ptr @strcpy(ptr noundef nonnull dereferenceable(1) %8, ptr noundef nonnull readonly dereferenceable(1) %4) #29
  br label %Abc_UtilStrsav.exit

Abc_UtilStrsav.exit:                              ; preds = %1, %5
  %10 = phi ptr [ %8, %5 ], [ null, %1 ]
  store ptr %10, ptr %3, align 8
  %11 = getelementptr inbounds nuw i8, ptr %0, i64 8
  %12 = load ptr, ptr %11, align 8
  %.not.i71 = icmp eq ptr %12, null
  br i1 %.not.i71, label %Abc_UtilStrsav.exit72, label %13

13:                                               ; preds = %Abc_UtilStrsav.exit
  %14 = tail call i64 @strlen(ptr noundef nonnull readonly dereferenceable(1) %12) #30
  %15 = add i64 %14, 1
  %16 = tail call noalias ptr @malloc(i64 noundef %15) #27
  %17 = tail call ptr @strcpy(ptr noundef nonnull dereferenceable(1) %16, ptr noundef nonnull readonly dereferenceable(1) %12) #29
  br label %Abc_UtilStrsav.exit72

Abc_UtilStrsav.exit72:                            ; preds = %Abc_UtilStrsav.exit, %13
  %18 = phi ptr [ %16, %13 ], [ null, %Abc_UtilStrsav.exit ]
  %19 = getelementptr inbounds nuw i8, ptr %3, i64 8
  store ptr %18, ptr %19, align 8
  tail call void @Gia_ManFillValue(ptr noundef nonnull %0) #29
  %20 = getelementptr i8, ptr %0, i64 32
  %.val65 = load ptr, ptr %20, align 8
  %21 = getelementptr inbounds nuw i8, ptr %.val65, i64 8
  store i32 0, ptr %21, align 4
  %22 = load i32, ptr %2, align 8
  %23 = icmp sgt i32 %22, 0
  br i1 %23, label %.lr.ph, label %.critedge

.lr.ph:                                           ; preds = %Abc_UtilStrsav.exit72, %53
  %indvars.iv = phi i64 [ %indvars.iv.next, %53 ], [ 0, %Abc_UtilStrsav.exit72 ]
  %.val59 = load ptr, ptr %20, align 8
  %24 = getelementptr inbounds nuw %struct.Gia_Obj_t_, ptr %.val59, i64 %indvars.iv
  %.not = icmp eq ptr %.val59, null
  br i1 %.not, label %.critedge, label %25

25:                                               ; preds = %.lr.ph
  %.val70 = load i64, ptr %24, align 4
  %26 = and i64 %.val70, 536870911
  %27 = icmp eq i64 %26, 536870911
  %28 = and i64 %.val70, 3221225472
  %29 = icmp ne i64 %28, 1073741824
  %or.cond = or i1 %29, %27
  br i1 %or.cond, label %53, label %30

30:                                               ; preds = %25
  %31 = sub nsw i64 0, %26
  %32 = getelementptr inbounds %struct.Gia_Obj_t_, ptr %24, i64 %31
  %33 = load i64, ptr %32, align 4
  %34 = and i64 %33, 1073741824
  %.not55 = icmp eq i64 %34, 0
  br i1 %.not55, label %35, label %40

35:                                               ; preds = %30
  %36 = getelementptr inbounds nuw i8, ptr %32, i64 8
  %37 = load i32, ptr %36, align 4
  %.not56 = icmp eq i32 %37, -1
  br i1 %.not56, label %38, label %40

38:                                               ; preds = %35
  %39 = tail call fastcc i32 @Gia_ManAppendCi(ptr noundef nonnull %3)
  store i32 %39, ptr %36, align 4
  %.pre = load i64, ptr %24, align 4
  br label %40

40:                                               ; preds = %38, %35, %30
  %41 = phi i64 [ %.pre, %38 ], [ %.val70, %35 ], [ %.val70, %30 ]
  %42 = lshr i64 %41, 32
  %43 = and i64 %42, 536870911
  %44 = sub nsw i64 0, %43
  %45 = getelementptr inbounds %struct.Gia_Obj_t_, ptr %24, i64 %44
  %46 = load i64, ptr %45, align 4
  %47 = and i64 %46, 1073741824
  %.not57 = icmp eq i64 %47, 0
  br i1 %.not57, label %48, label %53

48:                                               ; preds = %40
  %49 = getelementptr inbounds nuw i8, ptr %45, i64 8
  %50 = load i32, ptr %49, align 4
  %.not58 = icmp eq i32 %50, -1
  br i1 %.not58, label %51, label %53

51:                                               ; preds = %48
  %52 = tail call fastcc i32 @Gia_ManAppendCi(ptr noundef nonnull %3)
  store i32 %52, ptr %49, align 4
  br label %53

53:                                               ; preds = %25, %51, %48, %40
  %indvars.iv.next = add nuw nsw i64 %indvars.iv, 1
  %54 = load i32, ptr %2, align 8
  %55 = sext i32 %54 to i64
  %56 = icmp slt i64 %indvars.iv.next, %55
  br i1 %56, label %.lr.ph, label %.critedge, !llvm.loop !445

.critedge:                                        ; preds = %.lr.ph, %53, %Abc_UtilStrsav.exit72
  %57 = getelementptr i8, ptr %0, i64 16
  %.val6777 = load i32, ptr %57, align 8
  %58 = icmp sgt i32 %.val6777, 0
  br i1 %58, label %.lr.ph80, label %.critedge2

.lr.ph80:                                         ; preds = %.critedge
  %59 = getelementptr i8, ptr %0, i64 64
  br label %60

60:                                               ; preds = %.lr.ph80, %61
  %.val6779 = phi i32 [ %.val6777, %.lr.ph80 ], [ %.val67, %61 ]
  %.178 = phi i32 [ 0, %.lr.ph80 ], [ %72, %61 ]
  %.val61 = load ptr, ptr %20, align 8
  %.not51 = icmp eq ptr %.val61, null
  br i1 %.not51, label %.critedge2, label %61

61:                                               ; preds = %60
  %.val69 = load ptr, ptr %59, align 8
  %62 = getelementptr i8, ptr %.val69, i64 8
  %.val62.val = load ptr, ptr %62, align 8
  %63 = getelementptr i8, ptr %.val69, i64 4
  %.val69.val = load i32, ptr %63, align 4
  %64 = sub i32 %.178, %.val6779
  %65 = add i32 %64, %.val69.val
  %66 = sext i32 %65 to i64
  %67 = getelementptr inbounds i32, ptr %.val62.val, i64 %66
  %68 = load i32, ptr %67, align 4
  %69 = sext i32 %68 to i64
  %70 = tail call fastcc i32 @Gia_ManAppendCi(ptr noundef nonnull %3)
  %71 = getelementptr inbounds %struct.Gia_Obj_t_, ptr %.val61, i64 %69, i32 1
  store i32 %70, ptr %71, align 4
  %72 = add nuw nsw i32 %.178, 1
  %.val67 = load i32, ptr %57, align 8
  %73 = icmp slt i32 %72, %.val67
  br i1 %73, label %60, label %.critedge2, !llvm.loop !446

.critedge2:                                       ; preds = %60, %61, %.critedge
  %.val6691 = phi i32 [ %.val6777, %.critedge ], [ %.val6779, %60 ], [ %.val67, %61 ]
  %74 = getelementptr inbounds nuw i8, ptr %0, i64 72
  %75 = load ptr, ptr %74, align 8
  %76 = getelementptr i8, ptr %75, i64 4
  %.val82 = load i32, ptr %76, align 4
  %77 = icmp sgt i32 %.val82, 0
  br i1 %77, label %.lr.ph84, label %.critedge4

.lr.ph84:                                         ; preds = %.critedge2, %79
  %indvars.iv87 = phi i64 [ %indvars.iv.next88, %79 ], [ 0, %.critedge2 ]
  %78 = phi ptr [ %86, %79 ], [ %75, %.critedge2 ]
  %.val63 = load ptr, ptr %20, align 8
  %.not52 = icmp eq ptr %.val63, null
  br i1 %.not52, label %.critedge4.loopexit, label %79

79:                                               ; preds = %.lr.ph84
  %80 = getelementptr i8, ptr %78, i64 8
  %.val64.val = load ptr, ptr %80, align 8
  %81 = getelementptr inbounds nuw i32, ptr %.val64.val, i64 %indvars.iv87
  %82 = load i32, ptr %81, align 4
  %83 = sext i32 %82 to i64
  %84 = getelementptr inbounds %struct.Gia_Obj_t_, ptr %.val63, i64 %83
  %85 = tail call i32 @Gia_ManDupOrderDfs_rec(ptr noundef nonnull %3, ptr noundef nonnull %0, ptr noundef nonnull %84)
  %indvars.iv.next88 = add nuw nsw i64 %indvars.iv87, 1
  %86 = load ptr, ptr %74, align 8
  %87 = getelementptr i8, ptr %86, i64 4
  %.val = load i32, ptr %87, align 4
  %88 = sext i32 %.val to i64
  %89 = icmp slt i64 %indvars.iv.next88, %88
  br i1 %89, label %.lr.ph84, label %.critedge4.loopexit, !llvm.loop !447

.critedge4.loopexit:                              ; preds = %79, %.lr.ph84
  %.val66.pre = load i32, ptr %57, align 8
  br label %.critedge4

.critedge4:                                       ; preds = %.critedge4.loopexit, %.critedge2
  %.val66 = phi i32 [ %.val66.pre, %.critedge4.loopexit ], [ %.val6691, %.critedge2 ]
  tail call void @Gia_ManSetRegNum(ptr noundef nonnull %3, i32 noundef %.val66) #29
  tail call void @Gia_ManCleanMark0(ptr noundef nonnull %0) #29
  ret ptr %3
}